target datalayout = "e-m:e-p270:32:32-p271:32:32-p272:64:64-i64:64-i128:128-f80:128-n8:16:32:64-S128"
target triple = "x86_64-pc-linux-gnu"

%struct.rb_data_type_struct = type { ptr, %struct.anon.2, ptr, ptr, i64 }
%struct.anon.2 = type { ptr, ptr, ptr, ptr, [1 x ptr] }
%struct.zstream = type { i64, i64, i64, i64, %struct.z_stream_s, ptr }
%struct.z_stream_s = type { ptr, i32, i64, ptr, i32, i64, ptr, ptr, ptr, ptr, ptr, i32, i64, i64 }
%struct.RString = type { %struct.RBasic, i64, %union.anon }
%struct.RBasic = type { i64, i64 }
%union.anon = type { %struct.anon }
%struct.anon = type { ptr, %union.anon.0 }
%union.anon.0 = type { i64 }
%struct.anon.1 = type { [1 x i8] }

@cZError = internal global i64 0, align 8
@zstream_data_type = internal constant %struct.rb_data_type_struct { ptr @.str.147, %struct.anon.2 { ptr @zstream_mark, ptr @zstream_free, ptr @zstream_memsize, ptr null, [1 x ptr] zeroinitializer }, ptr null, ptr null, i64 1 }, align 8
@.str.150 = private unnamed_addr constant [20 x i8] c"stream is not ready\00", align 1

; Function Attrs: inlinehint nounwind sspstrong willreturn memory(read) uwtable
define internal i64 @RB_FL_TEST_RAW(i64 noundef %0, i64 noundef %1) #6 {
  %3 = alloca i64, align 8
  %4 = alloca i64, align 8
  store i64 %0, ptr %3, align 8, !tbaa !6
  store i64 %1, ptr %4, align 8, !tbaa !6
  %5 = load i64, ptr %3, align 8, !tbaa !6
  %6 = inttoptr i64 %5 to ptr
  %7 = getelementptr inbounds nuw %struct.RBasic, ptr %6, i32 0, i32 0
  %8 = load i64, ptr %7, align 8, !tbaa !91
  %9 = load i64, ptr %4, align 8, !tbaa !6
  %10 = and i64 %8, %9
  ret i64 %10
}

; Function Attrs: inlinehint nounwind sspstrong willreturn memory(read) uwtable
define internal i64 @RBASIC_CLASS(i64 noundef %0) #6 {
  %2 = alloca i64, align 8
  store i64 %0, ptr %2, align 8, !tbaa !6
  %3 = load i64, ptr %2, align 8, !tbaa !6
  %4 = inttoptr i64 %3 to ptr
  %5 = getelementptr inbounds nuw %struct.RBasic, ptr %4, i32 0, i32 1
  %6 = load i64, ptr %5, align 8, !tbaa !98
  ret i64 %6
}

; Function Attrs: inlinehint nounwind sspstrong willreturn memory(read) uwtable
define internal zeroext i1 @RB_FL_ANY_RAW(i64 noundef %0, i64 noundef %1) #6 {
  %3 = alloca i64, align 8
  %4 = alloca i64, align 8
  store i64 %0, ptr %3, align 8, !tbaa !6
  store i64 %1, ptr %4, align 8, !tbaa !6
  %5 = load i64, ptr %3, align 8, !tbaa !6
  %6 = load i64, ptr %4, align 8, !tbaa !6
  %7 = call i64 @RB_FL_TEST_RAW(i64 noundef %5, i64 noundef %6) #25
  %8 = icmp ne i64 %7, 0
  ret i1 %8
}

; Function Attrs: nounwind sspstrong uwtable
define internal void @zstream_reset_input(ptr noundef %0) #0 {
  %2 = alloca ptr, align 8
  store ptr %0, ptr %2, align 8, !tbaa !21
  %3 = load ptr, ptr %2, align 8, !tbaa !21
  %4 = getelementptr inbounds nuw %struct.zstream, ptr %3, i32 0, i32 2
  %5 = load i64, ptr %4, align 8, !tbaa !28
  %6 = call zeroext i1 @RB_NIL_P(i64 noundef %5) #24
  br i1 %6, label %18, label %7

7:                                                ; preds = %1
  %8 = load ptr, ptr %2, align 8, !tbaa !21
  %9 = getelementptr inbounds nuw %struct.zstream, ptr %8, i32 0, i32 2
  %10 = load i64, ptr %9, align 8, !tbaa !28
  %11 = call i64 @RBASIC_CLASS(i64 noundef %10) #25
  %12 = icmp eq i64 %11, 0
  br i1 %12, label %13, label %18

13:                                               ; preds = %7
  %14 = load ptr, ptr %2, align 8, !tbaa !21
  %15 = getelementptr inbounds nuw %struct.zstream, ptr %14, i32 0, i32 2
  %16 = load i64, ptr %15, align 8, !tbaa !28
  %17 = call i64 @rb_str_resize(i64 noundef %16, i64 noundef 0)
  br label %21

18:                                               ; preds = %7, %1
  %19 = load ptr, ptr %2, align 8, !tbaa !21
  %20 = getelementptr inbounds nuw %struct.zstream, ptr %19, i32 0, i32 2
  store i64 4, ptr %20, align 8, !tbaa !28
  br label %21

21:                                               ; preds = %18, %13
  ret void
}

; Function Attrs: nounwind sspstrong uwtable
define internal void @zstream_append_input(ptr noundef %0, ptr noundef %1, i64 noundef %2) #0 {
  %4 = alloca ptr, align 8
  %5 = alloca ptr, align 8
  %6 = alloca i64, align 8
  store ptr %0, ptr %4, align 8, !tbaa !21
  store ptr %1, ptr %5, align 8, !tbaa !19
  store i64 %2, ptr %6, align 8, !tbaa !6
  %7 = load i64, ptr %6, align 8, !tbaa !6
  %8 = icmp sle i64 %7, 0
  br i1 %8, label %9, label %10

9:                                                ; preds = %3
  br label %37

10:                                               ; preds = %3
  %11 = load ptr, ptr %4, align 8, !tbaa !21
  %12 = getelementptr inbounds nuw %struct.zstream, ptr %11, i32 0, i32 2
  %13 = load i64, ptr %12, align 8, !tbaa !28
  %14 = call zeroext i1 @RB_NIL_P(i64 noundef %13) #24
  br i1 %14, label %15, label %30

15:                                               ; preds = %10
  %16 = load i64, ptr %6, align 8, !tbaa !6
  %17 = call i64 @rb_str_buf_new(i64 noundef %16)
  %18 = load ptr, ptr %4, align 8, !tbaa !21
  %19 = getelementptr inbounds nuw %struct.zstream, ptr %18, i32 0, i32 2
  store i64 %17, ptr %19, align 8, !tbaa !28
  %20 = load ptr, ptr %4, align 8, !tbaa !21
  %21 = getelementptr inbounds nuw %struct.zstream, ptr %20, i32 0, i32 2
  %22 = load i64, ptr %21, align 8, !tbaa !28
  %23 = load ptr, ptr %5, align 8, !tbaa !19
  %24 = load i64, ptr %6, align 8, !tbaa !6
  %25 = call i64 @rb_str_cat(i64 noundef %22, ptr noundef %23, i64 noundef %24)
  %26 = load ptr, ptr %4, align 8, !tbaa !21
  %27 = getelementptr inbounds nuw %struct.zstream, ptr %26, i32 0, i32 2
  %28 = load i64, ptr %27, align 8, !tbaa !28
  %29 = call i64 @rb_obj_hide(i64 noundef %28)
  br label %37

30:                                               ; preds = %10
  %31 = load ptr, ptr %4, align 8, !tbaa !21
  %32 = getelementptr inbounds nuw %struct.zstream, ptr %31, i32 0, i32 2
  %33 = load i64, ptr %32, align 8, !tbaa !28
  %34 = load ptr, ptr %5, align 8, !tbaa !19
  %35 = load i64, ptr %6, align 8, !tbaa !6
  %36 = call i64 @rb_str_cat(i64 noundef %33, ptr noundef %34, i64 noundef %35)
  br label %37

37:                                               ; preds = %9, %30, %15
  ret void
}

; Function Attrs: inlinehint nounwind sspstrong uwtable
define internal i32 @max_uint(i64 noundef %0) #3 {
  %2 = alloca i64, align 8
  store i64 %0, ptr %2, align 8, !tbaa !6
  %3 = load i64, ptr %2, align 8, !tbaa !6
  %4 = icmp sgt i64 %3, 4294967295
  br i1 %4, label %5, label %6

5:                                                ; preds = %1
  store i64 4294967295, ptr %2, align 8, !tbaa !6
  br label %6

6:                                                ; preds = %5, %1
  %7 = load i64, ptr %2, align 8, !tbaa !6
  %8 = trunc i64 %7 to i32
  ret i32 %8
}

; Function Attrs: inlinehint nounwind sspstrong willreturn memory(none) uwtable
define internal zeroext i1 @RB_NIL_P(i64 noundef %0) #5 {
  %2 = alloca i64, align 8
  store i64 %0, ptr %2, align 8, !tbaa !6
  %3 = load i64, ptr %2, align 8, !tbaa !6
  %4 = icmp eq i64 %3, 4
  ret i1 %4
}

; Function Attrs: inlinehint nounwind sspstrong willreturn memory(read, argmem: readwrite) uwtable
define internal void @rbimpl_rstring_getmem(ptr dead_on_unwind noalias writable sret(%struct.RString) align 8 %0, i64 noundef %1) #9 {
  %3 = alloca i64, align 8
  store i64 %1, ptr %3, align 8, !tbaa !6
  %4 = load i64, ptr %3, align 8, !tbaa !6
  %5 = call zeroext i1 @RB_FL_ANY_RAW(i64 noundef %4, i64 noundef 8192) #25
  br i1 %5, label %6, label %9

6:                                                ; preds = %2
  %7 = load i64, ptr %3, align 8, !tbaa !6
  %8 = inttoptr i64 %7 to ptr
  call void @llvm.memcpy.p0.p0.i64(ptr align 8 %0, ptr align 8 %8, i64 40, i1 false), !tbaa.struct !92
  br label %20

9:                                                ; preds = %2
  %10 = load i64, ptr %3, align 8, !tbaa !6
  %11 = call i64 @RSTRING_LEN(i64 noundef %10) #25
  %12 = getelementptr inbounds nuw %struct.RString, ptr %0, i32 0, i32 1
  store i64 %11, ptr %12, align 8, !tbaa !88
  %13 = load i64, ptr %3, align 8, !tbaa !6
  %14 = inttoptr i64 %13 to ptr
  %15 = getelementptr inbounds nuw %struct.RString, ptr %14, i32 0, i32 2
  %16 = getelementptr inbounds nuw %struct.anon.1, ptr %15, i32 0, i32 0
  %17 = getelementptr inbounds [1 x i8], ptr %16, i64 0, i64 0
  %18 = getelementptr inbounds nuw %struct.RString, ptr %0, i32 0, i32 2
  %19 = getelementptr inbounds nuw %struct.anon, ptr %18, i32 0, i32 0
  store ptr %17, ptr %19, align 8, !tbaa !68
  br label %20

20:                                               ; preds = %9, %6
  ret void
}

; Function Attrs: nounwind sspstrong uwtable
define internal i64 @zstream_sync(ptr noundef %0, ptr noundef %1, i64 noundef %2) #0 {
  %4 = alloca i64, align 8
  %5 = alloca ptr, align 8
  %6 = alloca ptr, align 8
  %7 = alloca i64, align 8
  %8 = alloca i32, align 4
  %9 = alloca i32, align 4
  store ptr %0, ptr %5, align 8, !tbaa !21
  store ptr %1, ptr %6, align 8, !tbaa !19
  store i64 %2, ptr %7, align 8, !tbaa !6
  call void @llvm.lifetime.start.p0(i64 4, ptr %8) #23
  %10 = load ptr, ptr %5, align 8, !tbaa !21
  %11 = getelementptr inbounds nuw %struct.zstream, ptr %10, i32 0, i32 2
  %12 = load i64, ptr %11, align 8, !tbaa !28
  %13 = call zeroext i1 @RB_NIL_P(i64 noundef %12) #24
  br i1 %13, label %61, label %14

14:                                               ; preds = %3
  %15 = load ptr, ptr %5, align 8, !tbaa !21
  %16 = getelementptr inbounds nuw %struct.zstream, ptr %15, i32 0, i32 2
  %17 = load i64, ptr %16, align 8, !tbaa !28
  %18 = call ptr @RSTRING_PTR(i64 noundef %17)
  %19 = load ptr, ptr %5, align 8, !tbaa !21
  %20 = getelementptr inbounds nuw %struct.zstream, ptr %19, i32 0, i32 4
  %21 = getelementptr inbounds nuw %struct.z_stream_s, ptr %20, i32 0, i32 0
  store ptr %18, ptr %21, align 8, !tbaa !109
  %22 = load ptr, ptr %5, align 8, !tbaa !21
  %23 = getelementptr inbounds nuw %struct.zstream, ptr %22, i32 0, i32 2
  %24 = load i64, ptr %23, align 8, !tbaa !28
  %25 = call i64 @RSTRING_LEN(i64 noundef %24) #25
  %26 = call i32 @max_uint(i64 noundef %25)
  %27 = load ptr, ptr %5, align 8, !tbaa !21
  %28 = getelementptr inbounds nuw %struct.zstream, ptr %27, i32 0, i32 4
  %29 = getelementptr inbounds nuw %struct.z_stream_s, ptr %28, i32 0, i32 1
  store i32 %26, ptr %29, align 8, !tbaa !110
  %30 = load ptr, ptr %5, align 8, !tbaa !21
  %31 = getelementptr inbounds nuw %struct.zstream, ptr %30, i32 0, i32 4
  %32 = call i32 @inflateSync(ptr noundef %31)
  store i32 %32, ptr %8, align 4, !tbaa !10
  %33 = load i32, ptr %8, align 4, !tbaa !10
  %34 = icmp eq i32 %33, 0
  br i1 %34, label %35, label %50

35:                                               ; preds = %14
  %36 = load ptr, ptr %5, align 8, !tbaa !21
  %37 = load ptr, ptr %5, align 8, !tbaa !21
  %38 = getelementptr inbounds nuw %struct.zstream, ptr %37, i32 0, i32 2
  %39 = load i64, ptr %38, align 8, !tbaa !28
  %40 = call i64 @RSTRING_LEN(i64 noundef %39) #25
  %41 = load ptr, ptr %5, align 8, !tbaa !21
  %42 = getelementptr inbounds nuw %struct.zstream, ptr %41, i32 0, i32 4
  %43 = getelementptr inbounds nuw %struct.z_stream_s, ptr %42, i32 0, i32 1
  %44 = load i32, ptr %43, align 8, !tbaa !110
  %45 = zext i32 %44 to i64
  %46 = sub nsw i64 %40, %45
  call void @zstream_discard_input(ptr noundef %36, i64 noundef %46)
  %47 = load ptr, ptr %5, align 8, !tbaa !21
  %48 = load ptr, ptr %6, align 8, !tbaa !19
  %49 = load i64, ptr %7, align 8, !tbaa !6
  call void @zstream_append_input(ptr noundef %47, ptr noundef %48, i64 noundef %49)
  store i64 20, ptr %4, align 8
  store i32 1, ptr %9, align 4
  br label %101

50:                                               ; preds = %14
  %51 = load ptr, ptr %5, align 8, !tbaa !21
  call void @zstream_reset_input(ptr noundef %51)
  %52 = load i32, ptr %8, align 4, !tbaa !10
  %53 = icmp ne i32 %52, -3
  br i1 %53, label %54, label %60

54:                                               ; preds = %50
  %55 = load i32, ptr %8, align 4, !tbaa !10
  %56 = load ptr, ptr %5, align 8, !tbaa !21
  %57 = getelementptr inbounds nuw %struct.zstream, ptr %56, i32 0, i32 4
  %58 = getelementptr inbounds nuw %struct.z_stream_s, ptr %57, i32 0, i32 6
  %59 = load ptr, ptr %58, align 8, !tbaa !34
  call void @raise_zlib_error(i32 noundef %55, ptr noundef %59) #26
  unreachable

60:                                               ; preds = %50
  br label %61

61:                                               ; preds = %60, %3
  %62 = load i64, ptr %7, align 8, !tbaa !6
  %63 = icmp sle i64 %62, 0
  br i1 %63, label %64, label %65

64:                                               ; preds = %61
  store i64 0, ptr %4, align 8
  store i32 1, ptr %9, align 4
  br label %101

65:                                               ; preds = %61
  %66 = load ptr, ptr %6, align 8, !tbaa !19
  %67 = load ptr, ptr %5, align 8, !tbaa !21
  %68 = getelementptr inbounds nuw %struct.zstream, ptr %67, i32 0, i32 4
  %69 = getelementptr inbounds nuw %struct.z_stream_s, ptr %68, i32 0, i32 0
  store ptr %66, ptr %69, align 8, !tbaa !109
  %70 = load i64, ptr %7, align 8, !tbaa !6
  %71 = call i32 @max_uint(i64 noundef %70)
  %72 = load ptr, ptr %5, align 8, !tbaa !21
  %73 = getelementptr inbounds nuw %struct.zstream, ptr %72, i32 0, i32 4
  %74 = getelementptr inbounds nuw %struct.z_stream_s, ptr %73, i32 0, i32 1
  store i32 %71, ptr %74, align 8, !tbaa !110
  %75 = load ptr, ptr %5, align 8, !tbaa !21
  %76 = getelementptr inbounds nuw %struct.zstream, ptr %75, i32 0, i32 4
  %77 = call i32 @inflateSync(ptr noundef %76)
  store i32 %77, ptr %8, align 4, !tbaa !10
  %78 = load i32, ptr %8, align 4, !tbaa !10
  %79 = icmp eq i32 %78, 0
  br i1 %79, label %80, label %91

80:                                               ; preds = %65
  %81 = load ptr, ptr %5, align 8, !tbaa !21
  %82 = load ptr, ptr %5, align 8, !tbaa !21
  %83 = getelementptr inbounds nuw %struct.zstream, ptr %82, i32 0, i32 4
  %84 = getelementptr inbounds nuw %struct.z_stream_s, ptr %83, i32 0, i32 0
  %85 = load ptr, ptr %84, align 8, !tbaa !109
  %86 = load ptr, ptr %5, align 8, !tbaa !21
  %87 = getelementptr inbounds nuw %struct.zstream, ptr %86, i32 0, i32 4
  %88 = getelementptr inbounds nuw %struct.z_stream_s, ptr %87, i32 0, i32 1
  %89 = load i32, ptr %88, align 8, !tbaa !110
  %90 = zext i32 %89 to i64
  call void @zstream_append_input(ptr noundef %81, ptr noundef %85, i64 noundef %90)
  store i64 20, ptr %4, align 8
  store i32 1, ptr %9, align 4
  br label %101

91:                                               ; preds = %65
  %92 = load i32, ptr %8, align 4, !tbaa !10
  %93 = icmp ne i32 %92, -3
  br i1 %93, label %94, label %100

94:                                               ; preds = %91
  %95 = load i32, ptr %8, align 4, !tbaa !10
  %96 = load ptr, ptr %5, align 8, !tbaa !21
  %97 = getelementptr inbounds nuw %struct.zstream, ptr %96, i32 0, i32 4
  %98 = getelementptr inbounds nuw %struct.z_stream_s, ptr %97, i32 0, i32 6
  %99 = load ptr, ptr %98, align 8, !tbaa !34
  call void @raise_zlib_error(i32 noundef %95, ptr noundef %99) #26
  unreachable

100:                                              ; preds = %91
  store i64 0, ptr %4, align 8
  store i32 1, ptr %9, align 4
  br label %101

101:                                              ; preds = %100, %80, %64, %35
  call void @llvm.lifetime.end.p0(i64 4, ptr %8) #23
  %102 = load i64, ptr %4, align 8
  ret i64 %102
}

; Function Attrs: inlinehint nounwind sspstrong willreturn memory(read) uwtable
define internal i64 @RSTRING_LEN(i64 noundef %0) #6 {
  %2 = alloca i64, align 8
  store i64 %0, ptr %2, align 8, !tbaa !6
  %3 = load i64, ptr %2, align 8, !tbaa !6
  %4 = inttoptr i64 %3 to ptr
  %5 = getelementptr inbounds nuw %struct.RString, ptr %4, i32 0, i32 1
  %6 = load i64, ptr %5, align 8, !tbaa !88
  ret i64 %6
}

; Function Attrs: inlinehint nounwind sspstrong uwtable
define internal ptr @RSTRING_PTR(i64 noundef %0) #3 {
  %2 = alloca i64, align 8
  %3 = alloca ptr, align 8
  %4 = alloca %struct.RString, align 8
  store i64 %0, ptr %2, align 8, !tbaa !6
  call void @llvm.lifetime.start.p0(i64 8, ptr %3) #23
  %5 = load i64, ptr %2, align 8, !tbaa !6
  call void @rbimpl_rstring_getmem(ptr dead_on_unwind writable sret(%struct.RString) align 8 %4, i64 noundef %5) #28
  %6 = getelementptr inbounds nuw %struct.RString, ptr %4, i32 0, i32 2
  %7 = getelementptr inbounds nuw %struct.anon, ptr %6, i32 0, i32 0
  %8 = load ptr, ptr %7, align 8, !tbaa !68
  store ptr %8, ptr %3, align 8, !tbaa !19
  %9 = load ptr, ptr %3, align 8, !tbaa !19
  call void @llvm.lifetime.end.p0(i64 8, ptr %3) #23
  ret ptr %9
}

; Function Attrs: nounwind sspstrong uwtable
define internal ptr @get_zstream(i64 noundef %0) #0 {
  %2 = alloca i64, align 8
  %3 = alloca ptr, align 8
  store i64 %0, ptr %2, align 8, !tbaa !6
  call void @llvm.lifetime.start.p0(i64 8, ptr %3) #23
  %4 = load i64, ptr %2, align 8, !tbaa !6
  %5 = call ptr @rb_check_typeddata(i64 noundef %4, ptr noundef @zstream_data_type)
  store ptr %5, ptr %3, align 8, !tbaa !21
  %6 = load ptr, ptr %3, align 8, !tbaa !21
  %7 = getelementptr inbounds nuw %struct.zstream, ptr %6, i32 0, i32 0
  %8 = load i64, ptr %7, align 8, !tbaa !33
  %9 = and i64 %8, 1
  %10 = icmp ne i64 %9, 0
  br i1 %10, label %13, label %11

11:                                               ; preds = %1
  %12 = load i64, ptr @cZError, align 8, !tbaa !6
  call void (i64, ptr, ...) @rb_raise(i64 noundef %12, ptr noundef @.str.150) #26
  unreachable

13:                                               ; preds = %1
  %14 = load ptr, ptr %3, align 8, !tbaa !21
  call void @llvm.lifetime.end.p0(i64 8, ptr %3) #23
  ret ptr %14
}

; Function Attrs: nounwind sspstrong uwtable
define internal i64 @rb_inflate_sync(i64 noundef %0, i64 noundef %1) #0 {
  %3 = alloca i64, align 8
  %4 = alloca i64, align 8
  %5 = alloca ptr, align 8
  store i64 %0, ptr %3, align 8, !tbaa !6
  store i64 %1, ptr %4, align 8, !tbaa !6
  call void @llvm.lifetime.start.p0(i64 8, ptr %5) #23
  %6 = load i64, ptr %3, align 8, !tbaa !6
  %7 = call ptr @get_zstream(i64 noundef %6)
  store ptr %7, ptr %5, align 8, !tbaa !21
  %8 = call i64 @rb_string_value(ptr noundef %4)
  %9 = load ptr, ptr %5, align 8, !tbaa !21
  %10 = load i64, ptr %4, align 8, !tbaa !6
  %11 = call ptr @RSTRING_PTR(i64 noundef %10)
  %12 = load i64, ptr %4, align 8, !tbaa !6
  %13 = call i64 @RSTRING_LEN(i64 noundef %12) #25
  %14 = call i64 @zstream_sync(ptr noundef %9, ptr noundef %11, i64 noundef %13)
  call void @llvm.lifetime.end.p0(i64 8, ptr %5) #23
  ret i64 %14
}