; Function Attrs: nounwind sspstrong uwtable
define internal range(i64 0, 21) i64 @rb_inflate_sync(i64 noundef %0, i64 noundef %1) #0 {
  %3 = alloca i64, align 8
  store i64 %1, ptr %3, align 8, !tbaa !6
  %4 = tail call ptr @rb_check_typeddata(i64 noundef %0, ptr noundef nonnull @zstream_data_type) #18
  %5 = load i64, ptr %4, align 8, !tbaa !42
  %6 = and i64 %5, 1
  %.not.i = icmp eq i64 %6, 0
  br i1 %.not.i, label %7, label %get_zstream.exit

7:                                                ; preds = %2
  %8 = load i64, ptr @cZError, align 8, !tbaa !6
  tail call void (i64, ptr, ...) @rb_raise(i64 noundef %8, ptr noundef nonnull @.str.150) #19
  unreachable

get_zstream.exit:                                 ; preds = %2
  %9 = call i64 @rb_string_value(ptr noundef nonnull %3) #18
  %10 = load i64, ptr %3, align 8, !tbaa !6
  %11 = inttoptr i64 %10 to ptr
  %12 = load i64, ptr %11, align 8, !tbaa !16, !noalias !104
  %13 = and i64 %12, 8192
  %.not.i.i = icmp eq i64 %13, 0
  %14 = getelementptr inbounds nuw i8, ptr %11, i64 24
  br i1 %.not.i.i, label %RSTRING_PTR.exit, label %15

15:                                               ; preds = %get_zstream.exit
  %.sroa.2.0.copyload.i = load ptr, ptr %14, align 8
  br label %RSTRING_PTR.exit

RSTRING_PTR.exit:                                 ; preds = %get_zstream.exit, %15
  %.sroa.2.0.i = phi ptr [ %.sroa.2.0.copyload.i, %15 ], [ %14, %get_zstream.exit ]
  %16 = getelementptr inbounds nuw i8, ptr %11, i64 16
  %17 = load i64, ptr %16, align 8, !tbaa !21
  %18 = getelementptr inbounds nuw i8, ptr %4, i64 16
  %19 = load i64, ptr %18, align 8, !tbaa !51
  %20 = icmp eq i64 %19, 4
  br i1 %20, label %66, label %21

21:                                               ; preds = %RSTRING_PTR.exit
  %22 = inttoptr i64 %19 to ptr
  %23 = load i64, ptr %22, align 8, !tbaa !16, !noalias !107
  %24 = and i64 %23, 8192
  %.not.i.i.i = icmp eq i64 %24, 0
  %25 = getelementptr inbounds nuw i8, ptr %22, i64 24
  br i1 %.not.i.i.i, label %RSTRING_PTR.exit.i, label %26

26:                                               ; preds = %21
  %.sroa.2.0.copyload.i.i = load ptr, ptr %25, align 8
  br label %RSTRING_PTR.exit.i

RSTRING_PTR.exit.i:                               ; preds = %26, %21
  %.sroa.2.0.i.i = phi ptr [ %.sroa.2.0.copyload.i.i, %26 ], [ %25, %21 ]
  %27 = getelementptr inbounds nuw i8, ptr %4, i64 32
  store ptr %.sroa.2.0.i.i, ptr %27, align 8, !tbaa !74
  %28 = getelementptr inbounds nuw i8, ptr %22, i64 16
  %29 = load i64, ptr %28, align 8, !tbaa !21
  %spec.store.select.i.i = call i64 @llvm.smin.i64(i64 %29, i64 4294967295)
  %30 = trunc i64 %spec.store.select.i.i to i32
  %31 = getelementptr inbounds nuw i8, ptr %4, i64 40
  store i32 %30, ptr %31, align 8, !tbaa !75
  %32 = call i32 @inflateSync(ptr noundef nonnull %27) #18
  %33 = icmp eq i32 %32, 0
  %34 = load i64, ptr %18, align 8, !tbaa !51
  br i1 %33, label %35, label %53

35:                                               ; preds = %RSTRING_PTR.exit.i
  %36 = inttoptr i64 %34 to ptr
  %37 = getelementptr inbounds nuw i8, ptr %36, i64 16
  %38 = load i64, ptr %37, align 8, !tbaa !21
  %39 = load i32, ptr %31, align 8, !tbaa !75
  %40 = zext i32 %39 to i64
  %41 = sub nsw i64 %38, %40
  call fastcc void @zstream_discard_input(ptr noundef nonnull %4, i64 noundef %41)
  %42 = icmp slt i64 %17, 1
  br i1 %42, label %zstream_sync.exit, label %43

43:                                               ; preds = %35
  %44 = load i64, ptr %18, align 8, !tbaa !51
  %45 = icmp eq i64 %44, 4
  br i1 %45, label %46, label %51

46:                                               ; preds = %43
  %47 = call i64 @rb_str_buf_new(i64 noundef %17) #18
  store i64 %47, ptr %18, align 8, !tbaa !51
  %48 = call i64 @rb_str_cat(i64 noundef %47, ptr noundef %.sroa.2.0.i, i64 noundef %17) #18
  %49 = load i64, ptr %18, align 8, !tbaa !51
  %50 = call i64 @rb_obj_hide(i64 noundef %49) #18
  br label %zstream_sync.exit

51:                                               ; preds = %43
  %52 = call i64 @rb_str_cat(i64 noundef %44, ptr noundef %.sroa.2.0.i, i64 noundef %17) #18
  br label %zstream_sync.exit

53:                                               ; preds = %RSTRING_PTR.exit.i
  %54 = icmp eq i64 %34, 4
  br i1 %54, label %62, label %55

55:                                               ; preds = %53
  %56 = inttoptr i64 %34 to ptr
  %57 = getelementptr inbounds nuw i8, ptr %56, i64 8
  %58 = load i64, ptr %57, align 8, !tbaa !60
  %59 = icmp eq i64 %58, 0
  br i1 %59, label %60, label %62

60:                                               ; preds = %55
  %61 = call i64 @rb_str_resize(i64 noundef %34, i64 noundef 0) #18
  br label %zstream_reset_input.exit.i

62:                                               ; preds = %55, %53
  store i64 4, ptr %18, align 8, !tbaa !51
  br label %zstream_reset_input.exit.i

zstream_reset_input.exit.i:                       ; preds = %62, %60
  %.not.i1 = icmp eq i32 %32, -3
  br i1 %.not.i1, label %66, label %63

63:                                               ; preds = %zstream_reset_input.exit.i
  %64 = getelementptr inbounds nuw i8, ptr %4, i64 80
  %65 = load ptr, ptr %64, align 8, !tbaa !59
  call fastcc void @raise_zlib_error(i32 noundef %32, ptr noundef %65) #20
  unreachable

66:                                               ; preds = %zstream_reset_input.exit.i, %RSTRING_PTR.exit
  %67 = icmp slt i64 %17, 1
  br i1 %67, label %zstream_sync.exit, label %68

68:                                               ; preds = %66
  %69 = getelementptr inbounds nuw i8, ptr %4, i64 32
  store ptr %.sroa.2.0.i, ptr %69, align 8, !tbaa !74
  %70 = call i64 @llvm.umin.i64(i64 %17, i64 4294967295)
  %71 = trunc nuw i64 %70 to i32
  %72 = getelementptr inbounds nuw i8, ptr %4, i64 40
  store i32 %71, ptr %72, align 8, !tbaa !75
  %73 = call i32 @inflateSync(ptr noundef nonnull %69) #18
  switch i32 %73, label %89 [
    i32 0, label %74
    i32 -3, label %zstream_sync.exit
  ]

74:                                               ; preds = %68
  %75 = load ptr, ptr %69, align 8, !tbaa !74
  %76 = load i32, ptr %72, align 8, !tbaa !75
  %77 = zext i32 %76 to i64
  %78 = icmp eq i32 %76, 0
  br i1 %78, label %zstream_sync.exit, label %79

79:                                               ; preds = %74
  %80 = load i64, ptr %18, align 8, !tbaa !51
  %81 = icmp eq i64 %80, 4
  br i1 %81, label %82, label %87

82:                                               ; preds = %79
  %83 = call i64 @rb_str_buf_new(i64 noundef %77) #18
  store i64 %83, ptr %18, align 8, !tbaa !51
  %84 = call i64 @rb_str_cat(i64 noundef %83, ptr noundef %75, i64 noundef %77) #18
  %85 = load i64, ptr %18, align 8, !tbaa !51
  %86 = call i64 @rb_obj_hide(i64 noundef %85) #18
  br label %zstream_sync.exit

87:                                               ; preds = %79
  %88 = call i64 @rb_str_cat(i64 noundef %80, ptr noundef %75, i64 noundef %77) #18
  br label %zstream_sync.exit

89:                                               ; preds = %68
  %90 = getelementptr inbounds nuw i8, ptr %4, i64 80
  %91 = load ptr, ptr %90, align 8, !tbaa !59
  call fastcc void @raise_zlib_error(i32 noundef %73, ptr noundef %91) #20
  unreachable

zstream_sync.exit:                                ; preds = %35, %46, %51, %66, %68, %74, %82, %87
  %.0.i = phi i64 [ 0, %66 ], [ 0, %68 ], [ 20, %35 ], [ 20, %46 ], [ 20, %51 ], [ 20, %74 ], [ 20, %82 ], [ 20, %87 ]
  ret i64 %.0.i
}